target datalayout = "e-m:e-p270:32:32-p271:32:32-p272:64:64-i64:64-i128:128-f80:128-n8:16:32:64-S128"
target triple = "x86_64-pc-linux-gnu"

%struct.AVFilterContext = type { ptr, ptr, ptr, ptr, ptr, i32, ptr, ptr, i32, ptr, ptr, i32, i32, ptr, ptr, ptr, ptr, i32, ptr, i32, i32 }
%struct.LimitDiffContext = type { ptr, float, float, i32, i32, i32, i32, [4 x i32], [4 x i32], [4 x i32], i32, i32, %struct.FFFrameSync, ptr }
%struct.FFFrameSync = type { ptr, ptr, i32, %struct.AVRational, i64, ptr, ptr, i32, i32, i8, i8, ptr, i32, i32, i32, i32 }
%struct.AVRational = type { i32, i32 }
%struct.AVFilterLink = type { ptr, ptr, ptr, ptr, i32, i32, i32, i32, %struct.AVRational, i32, i32, i32, %struct.AVChannelLayout, %struct.AVRational, ptr, i32, %struct.AVFilterFormatsConfig, %struct.AVFilterFormatsConfig }
%struct.AVChannelLayout = type { i32, i32, %union.anon.1, ptr }
%union.anon.1 = type { i64 }
%struct.AVFilterFormatsConfig = type { ptr, ptr, ptr, ptr, ptr }
%struct.AVPixFmtDescriptor = type { ptr, i8, i8, i8, i64, [4 x %struct.AVComponentDescriptor], ptr }
%struct.AVComponentDescriptor = type { i32, i32, i32, i32, i32 }

; Function Attrs: nounwind uwtable
define internal i32 @config_input(ptr noundef %0) #2 {
  %2 = alloca i32, align 4
  %3 = alloca ptr, align 8
  %4 = alloca ptr, align 8
  %5 = alloca ptr, align 8
  %6 = alloca ptr, align 8
  %7 = alloca i32, align 4
  %8 = alloca i32, align 4
  %9 = alloca i32, align 4
  %10 = alloca i32, align 4
  store ptr %0, ptr %3, align 8, !tbaa !35
  call void @llvm.lifetime.start.p0(i64 8, ptr %4) #10
  %11 = load ptr, ptr %3, align 8, !tbaa !35
  %12 = getelementptr inbounds nuw %struct.AVFilterLink, ptr %11, i32 0, i32 2
  %13 = load ptr, ptr %12, align 8, !tbaa !92
  store ptr %13, ptr %4, align 8, !tbaa !4
  call void @llvm.lifetime.start.p0(i64 8, ptr %5) #10
  %14 = load ptr, ptr %4, align 8, !tbaa !4
  %15 = getelementptr inbounds nuw %struct.AVFilterContext, ptr %14, i32 0, i32 9
  %16 = load ptr, ptr %15, align 8, !tbaa !9
  store ptr %16, ptr %5, align 8, !tbaa !22
  call void @llvm.lifetime.start.p0(i64 8, ptr %6) #10
  %17 = load ptr, ptr %3, align 8, !tbaa !35
  %18 = getelementptr inbounds nuw %struct.AVFilterLink, ptr %17, i32 0, i32 5
  %19 = load i32, ptr %18, align 4, !tbaa !93
  %20 = call ptr @av_pix_fmt_desc_get(i32 noundef %19)
  store ptr %20, ptr %6, align 8, !tbaa !94
  call void @llvm.lifetime.start.p0(i64 4, ptr %7) #10
  call void @llvm.lifetime.start.p0(i64 4, ptr %8) #10
  call void @llvm.lifetime.start.p0(i64 4, ptr %9) #10
  %21 = load ptr, ptr %3, align 8, !tbaa !35
  %22 = getelementptr inbounds nuw %struct.AVFilterLink, ptr %21, i32 0, i32 5
  %23 = load i32, ptr %22, align 4, !tbaa !93
  %24 = call i32 @av_pix_fmt_count_planes(i32 noundef %23)
  %25 = load ptr, ptr %5, align 8, !tbaa !22
  %26 = getelementptr inbounds nuw %struct.LimitDiffContext, ptr %25, i32 0, i32 10
  store i32 %24, ptr %26, align 8, !tbaa !82
  %27 = load ptr, ptr %5, align 8, !tbaa !22
  %28 = getelementptr inbounds nuw %struct.LimitDiffContext, ptr %27, i32 0, i32 7
  %29 = getelementptr inbounds [4 x i32], ptr %28, i64 0, i64 0
  %30 = load ptr, ptr %3, align 8, !tbaa !35
  %31 = getelementptr inbounds nuw %struct.AVFilterLink, ptr %30, i32 0, i32 5
  %32 = load i32, ptr %31, align 4, !tbaa !93
  %33 = load ptr, ptr %3, align 8, !tbaa !35
  %34 = getelementptr inbounds nuw %struct.AVFilterLink, ptr %33, i32 0, i32 6
  %35 = load i32, ptr %34, align 8, !tbaa !47
  %36 = call i32 @av_image_fill_linesizes(ptr noundef %29, i32 noundef %32, i32 noundef %35)
  store i32 %36, ptr %9, align 4, !tbaa !24
  %37 = icmp slt i32 %36, 0
  br i1 %37, label %38, label %40

38:                                               ; preds = %1
  %39 = load i32, ptr %9, align 4, !tbaa !24
  store i32 %39, ptr %2, align 4
  store i32 1, ptr %10, align 4
  br label %167

40:                                               ; preds = %1
  %41 = load ptr, ptr %6, align 8, !tbaa !94
  %42 = getelementptr inbounds nuw %struct.AVPixFmtDescriptor, ptr %41, i32 0, i32 2
  %43 = load i8, ptr %42, align 1, !tbaa !96
  %44 = zext i8 %43 to i32
  store i32 %44, ptr %8, align 4, !tbaa !24
  %45 = load ptr, ptr %6, align 8, !tbaa !94
  %46 = getelementptr inbounds nuw %struct.AVPixFmtDescriptor, ptr %45, i32 0, i32 3
  %47 = load i8, ptr %46, align 2, !tbaa !98
  %48 = zext i8 %47 to i32
  store i32 %48, ptr %7, align 4, !tbaa !24
  %49 = load i32, ptr %7, align 4, !tbaa !24
  %50 = call i1 @llvm.is.constant.i32(i32 %49)
  br i1 %50, label %59, label %51

51:                                               ; preds = %40
  %52 = load ptr, ptr %3, align 8, !tbaa !35
  %53 = getelementptr inbounds nuw %struct.AVFilterLink, ptr %52, i32 0, i32 7
  %54 = load i32, ptr %53, align 4, !tbaa !48
  %55 = sub nsw i32 0, %54
  %56 = load i32, ptr %7, align 4, !tbaa !24
  %57 = ashr i32 %55, %56
  %58 = sub nsw i32 0, %57
  br label %69

59:                                               ; preds = %40
  %60 = load ptr, ptr %3, align 8, !tbaa !35
  %61 = getelementptr inbounds nuw %struct.AVFilterLink, ptr %60, i32 0, i32 7
  %62 = load i32, ptr %61, align 4, !tbaa !48
  %63 = load i32, ptr %7, align 4, !tbaa !24
  %64 = shl i32 1, %63
  %65 = add nsw i32 %62, %64
  %66 = sub nsw i32 %65, 1
  %67 = load i32, ptr %7, align 4, !tbaa !24
  %68 = ashr i32 %66, %67
  br label %69

69:                                               ; preds = %59, %51
  %70 = phi i32 [ %58, %51 ], [ %68, %59 ]
  %71 = load ptr, ptr %5, align 8, !tbaa !22
  %72 = getelementptr inbounds nuw %struct.LimitDiffContext, ptr %71, i32 0, i32 9
  %73 = getelementptr inbounds [4 x i32], ptr %72, i64 0, i64 2
  store i32 %70, ptr %73, align 8, !tbaa !24
  %74 = load ptr, ptr %5, align 8, !tbaa !22
  %75 = getelementptr inbounds nuw %struct.LimitDiffContext, ptr %74, i32 0, i32 9
  %76 = getelementptr inbounds [4 x i32], ptr %75, i64 0, i64 1
  store i32 %70, ptr %76, align 4, !tbaa !24
  %77 = load ptr, ptr %3, align 8, !tbaa !35
  %78 = getelementptr inbounds nuw %struct.AVFilterLink, ptr %77, i32 0, i32 7
  %79 = load i32, ptr %78, align 4, !tbaa !48
  %80 = load ptr, ptr %5, align 8, !tbaa !22
  %81 = getelementptr inbounds nuw %struct.LimitDiffContext, ptr %80, i32 0, i32 9
  %82 = getelementptr inbounds [4 x i32], ptr %81, i64 0, i64 3
  store i32 %79, ptr %82, align 4, !tbaa !24
  %83 = load ptr, ptr %5, align 8, !tbaa !22
  %84 = getelementptr inbounds nuw %struct.LimitDiffContext, ptr %83, i32 0, i32 9
  %85 = getelementptr inbounds [4 x i32], ptr %84, i64 0, i64 0
  store i32 %79, ptr %85, align 8, !tbaa !24
  %86 = load i32, ptr %8, align 4, !tbaa !24
  %87 = call i1 @llvm.is.constant.i32(i32 %86)
  br i1 %87, label %96, label %88

88:                                               ; preds = %69
  %89 = load ptr, ptr %3, align 8, !tbaa !35
  %90 = getelementptr inbounds nuw %struct.AVFilterLink, ptr %89, i32 0, i32 6
  %91 = load i32, ptr %90, align 8, !tbaa !47
  %92 = sub nsw i32 0, %91
  %93 = load i32, ptr %8, align 4, !tbaa !24
  %94 = ashr i32 %92, %93
  %95 = sub nsw i32 0, %94
  br label %106

96:                                               ; preds = %69
  %97 = load ptr, ptr %3, align 8, !tbaa !35
  %98 = getelementptr inbounds nuw %struct.AVFilterLink, ptr %97, i32 0, i32 6
  %99 = load i32, ptr %98, align 8, !tbaa !47
  %100 = load i32, ptr %8, align 4, !tbaa !24
  %101 = shl i32 1, %100
  %102 = add nsw i32 %99, %101
  %103 = sub nsw i32 %102, 1
  %104 = load i32, ptr %8, align 4, !tbaa !24
  %105 = ashr i32 %103, %104
  br label %106

106:                                              ; preds = %96, %88
  %107 = phi i32 [ %95, %88 ], [ %105, %96 ]
  %108 = load ptr, ptr %5, align 8, !tbaa !22
  %109 = getelementptr inbounds nuw %struct.LimitDiffContext, ptr %108, i32 0, i32 8
  %110 = getelementptr inbounds [4 x i32], ptr %109, i64 0, i64 2
  store i32 %107, ptr %110, align 8, !tbaa !24
  %111 = load ptr, ptr %5, align 8, !tbaa !22
  %112 = getelementptr inbounds nuw %struct.LimitDiffContext, ptr %111, i32 0, i32 8
  %113 = getelementptr inbounds [4 x i32], ptr %112, i64 0, i64 1
  store i32 %107, ptr %113, align 4, !tbaa !24
  %114 = load ptr, ptr %3, align 8, !tbaa !35
  %115 = getelementptr inbounds nuw %struct.AVFilterLink, ptr %114, i32 0, i32 6
  %116 = load i32, ptr %115, align 8, !tbaa !47
  %117 = load ptr, ptr %5, align 8, !tbaa !22
  %118 = getelementptr inbounds nuw %struct.LimitDiffContext, ptr %117, i32 0, i32 8
  %119 = getelementptr inbounds [4 x i32], ptr %118, i64 0, i64 3
  store i32 %116, ptr %119, align 4, !tbaa !24
  %120 = load ptr, ptr %5, align 8, !tbaa !22
  %121 = getelementptr inbounds nuw %struct.LimitDiffContext, ptr %120, i32 0, i32 8
  %122 = getelementptr inbounds [4 x i32], ptr %121, i64 0, i64 0
  store i32 %116, ptr %122, align 8, !tbaa !24
  %123 = load ptr, ptr %6, align 8, !tbaa !94
  %124 = getelementptr inbounds nuw %struct.AVPixFmtDescriptor, ptr %123, i32 0, i32 5
  %125 = getelementptr inbounds [4 x %struct.AVComponentDescriptor], ptr %124, i64 0, i64 0
  %126 = getelementptr inbounds nuw %struct.AVComponentDescriptor, ptr %125, i32 0, i32 4
  %127 = load i32, ptr %126, align 8, !tbaa !99
  %128 = load ptr, ptr %5, align 8, !tbaa !22
  %129 = getelementptr inbounds nuw %struct.LimitDiffContext, ptr %128, i32 0, i32 11
  store i32 %127, ptr %129, align 4, !tbaa !79
  %130 = load ptr, ptr %5, align 8, !tbaa !22
  %131 = getelementptr inbounds nuw %struct.LimitDiffContext, ptr %130, i32 0, i32 1
  %132 = load float, ptr %131, align 8, !tbaa !101
  %133 = load ptr, ptr %5, align 8, !tbaa !22
  %134 = getelementptr inbounds nuw %struct.LimitDiffContext, ptr %133, i32 0, i32 11
  %135 = load i32, ptr %134, align 4, !tbaa !79
  %136 = shl i32 1, %135
  %137 = sub nsw i32 %136, 1
  %138 = sitofp i32 %137 to float
  %139 = fmul nsz float %132, %138
  %140 = fptosi float %139 to i32
  %141 = load ptr, ptr %5, align 8, !tbaa !22
  %142 = getelementptr inbounds nuw %struct.LimitDiffContext, ptr %141, i32 0, i32 5
  store i32 %140, ptr %142, align 8, !tbaa !84
  %143 = load ptr, ptr %5, align 8, !tbaa !22
  %144 = getelementptr inbounds nuw %struct.LimitDiffContext, ptr %143, i32 0, i32 5
  %145 = load i32, ptr %144, align 8, !tbaa !84
  %146 = sitofp i32 %145 to float
  %147 = load ptr, ptr %5, align 8, !tbaa !22
  %148 = getelementptr inbounds nuw %struct.LimitDiffContext, ptr %147, i32 0, i32 2
  %149 = load float, ptr %148, align 4, !tbaa !102
  %150 = fmul nsz float %146, %149
  %151 = fptosi float %150 to i32
  %152 = load ptr, ptr %5, align 8, !tbaa !22
  %153 = getelementptr inbounds nuw %struct.LimitDiffContext, ptr %152, i32 0, i32 6
  store i32 %151, ptr %153, align 4, !tbaa !85
  %154 = load ptr, ptr %6, align 8, !tbaa !94
  %155 = getelementptr inbounds nuw %struct.AVPixFmtDescriptor, ptr %154, i32 0, i32 5
  %156 = getelementptr inbounds [4 x %struct.AVComponentDescriptor], ptr %155, i64 0, i64 0
  %157 = getelementptr inbounds nuw %struct.AVComponentDescriptor, ptr %156, i32 0, i32 4
  %158 = load i32, ptr %157, align 8, !tbaa !99
  %159 = icmp eq i32 %158, 8
  br i1 %159, label %160, label %163

160:                                              ; preds = %106
  %161 = load ptr, ptr %5, align 8, !tbaa !22
  %162 = getelementptr inbounds nuw %struct.LimitDiffContext, ptr %161, i32 0, i32 13
  store ptr @limitdiff8, ptr %162, align 8, !tbaa !88
  br label %166

163:                                              ; preds = %106
  %164 = load ptr, ptr %5, align 8, !tbaa !22
  %165 = getelementptr inbounds nuw %struct.LimitDiffContext, ptr %164, i32 0, i32 13
  store ptr @limitdiff16, ptr %165, align 8, !tbaa !88
  br label %166

166:                                              ; preds = %163, %160
  store i32 0, ptr %2, align 4
  store i32 1, ptr %10, align 4
  br label %167

167:                                              ; preds = %166, %38
  call void @llvm.lifetime.end.p0(i64 4, ptr %9) #10
  call void @llvm.lifetime.end.p0(i64 4, ptr %8) #10
  call void @llvm.lifetime.end.p0(i64 4, ptr %7) #10
  call void @llvm.lifetime.end.p0(i64 8, ptr %6) #10
  call void @llvm.lifetime.end.p0(i64 8, ptr %5) #10
  call void @llvm.lifetime.end.p0(i64 8, ptr %4) #10
  %168 = load i32, ptr %2, align 4
  ret i32 %168
}