; Function Attrs: nounwind uwtable
define internal range(i32 -2147483648, 1) i32 @config_input(ptr noundef readonly captures(none) %0) #2 {
  %2 = getelementptr inbounds nuw i8, ptr %0, i64 16
  %3 = load ptr, ptr %2, align 8, !tbaa !79
  %4 = getelementptr inbounds nuw i8, ptr %3, i64 72
  %5 = load ptr, ptr %4, align 8, !tbaa !4
  %6 = getelementptr inbounds nuw i8, ptr %0, i64 36
  %7 = load i32, ptr %6, align 4, !tbaa !80
  %8 = tail call ptr @av_pix_fmt_desc_get(i32 noundef %7) #9
  %9 = load i32, ptr %6, align 4, !tbaa !80
  %10 = tail call i32 @av_pix_fmt_count_planes(i32 noundef %9) #9
  %11 = getelementptr inbounds nuw i8, ptr %5, i64 80
  store i32 %10, ptr %11, align 8, !tbaa !70
  %12 = getelementptr inbounds nuw i8, ptr %5, i64 32
  %13 = load i32, ptr %6, align 4, !tbaa !80
  %14 = getelementptr inbounds nuw i8, ptr %0, i64 40
  %15 = load i32, ptr %14, align 8, !tbaa !41
  %16 = tail call i32 @av_image_fill_linesizes(ptr noundef nonnull %12, i32 noundef %13, i32 noundef %15) #9
  %17 = icmp slt i32 %16, 0
  br i1 %17, label %62, label %.sink.split

.sink.split:                                      ; preds = %1
  %18 = getelementptr inbounds nuw i8, ptr %8, i64 9
  %19 = load i8, ptr %18, align 1, !tbaa !81
  %20 = zext nneg i8 %19 to i32
  %21 = getelementptr inbounds nuw i8, ptr %0, i64 44
  %22 = load i32, ptr %21, align 4, !tbaa !42
  %23 = sub nsw i32 0, %22
  %24 = getelementptr inbounds nuw i8, ptr %8, i64 10
  %25 = load i8, ptr %24, align 2, !tbaa !83
  %26 = zext nneg i8 %25 to i32
  %27 = ashr i32 %23, %26
  %28 = sub nsw i32 0, %27
  %29 = getelementptr inbounds nuw i8, ptr %5, i64 64
  %30 = getelementptr inbounds nuw i8, ptr %5, i64 72
  store i32 %28, ptr %30, align 8, !tbaa !62
  %31 = getelementptr inbounds nuw i8, ptr %5, i64 68
  store i32 %28, ptr %31, align 4, !tbaa !62
  %32 = getelementptr inbounds nuw i8, ptr %0, i64 44
  %33 = load i32, ptr %32, align 4, !tbaa !42
  %34 = getelementptr inbounds nuw i8, ptr %5, i64 76
  store i32 %33, ptr %34, align 4, !tbaa !62
  store i32 %33, ptr %29, align 8, !tbaa !62
  %35 = load i32, ptr %14, align 8, !tbaa !41
  %36 = sub nsw i32 0, %35
  %37 = ashr i32 %36, %20
  %38 = sub nsw i32 0, %37
  %39 = getelementptr inbounds nuw i8, ptr %5, i64 48
  %40 = getelementptr inbounds nuw i8, ptr %5, i64 56
  store i32 %38, ptr %40, align 8, !tbaa !62
  %41 = getelementptr inbounds nuw i8, ptr %5, i64 52
  store i32 %38, ptr %41, align 4, !tbaa !62
  %42 = load i32, ptr %14, align 8, !tbaa !41
  %43 = getelementptr inbounds nuw i8, ptr %5, i64 60
  store i32 %42, ptr %43, align 4, !tbaa !62
  store i32 %42, ptr %39, align 8, !tbaa !62
  %44 = getelementptr inbounds nuw i8, ptr %8, i64 40
  %45 = load i32, ptr %44, align 8, !tbaa !84
  %46 = getelementptr inbounds nuw i8, ptr %5, i64 84
  store i32 %45, ptr %46, align 4, !tbaa !69
  %47 = getelementptr inbounds nuw i8, ptr %5, i64 8
  %48 = load float, ptr %47, align 8, !tbaa !86
  %notmask = shl nsw i32 -1, %45
  %49 = xor i32 %notmask, -1
  %50 = uitofp nneg i32 %49 to float
  %51 = fmul nsz float %48, %50
  %52 = fptosi float %51 to i32
  %53 = getelementptr inbounds nuw i8, ptr %5, i64 24
  store i32 %52, ptr %53, align 8, !tbaa !71
  %54 = sitofp i32 %52 to float
  %55 = getelementptr inbounds nuw i8, ptr %5, i64 12
  %56 = load float, ptr %55, align 4, !tbaa !87
  %57 = fmul nsz float %56, %54
  %58 = fptosi float %57 to i32
  %59 = getelementptr inbounds nuw i8, ptr %5, i64 28
  store i32 %58, ptr %59, align 4, !tbaa !72
  %60 = icmp eq i32 %45, 8
  %61 = getelementptr inbounds nuw i8, ptr %5, i64 184
  %limitdiff8.limitdiff16 = select i1 %60, ptr @limitdiff8, ptr @limitdiff16
  store ptr %limitdiff8.limitdiff16, ptr %61, align 8, !tbaa !75
  br label %62

62:                                               ; preds = %.sink.split, %1
  %.0 = phi i32 [ %16, %1 ], [ 0, %.sink.split ]
  ret i32 %.0
}